target datalayout = "e-m:e-p270:32:32-p271:32:32-p272:64:64-i64:64-i128:128-f80:128-n8:16:32:64-S128"
target triple = "x86_64-pc-linux-gnu"

; Function Attrs: nounwind sspstrong uwtable
define internal i64 @pm_encoding_euc_jp_char_width(ptr noundef %0, i64 noundef %1) #0 {
  %3 = alloca i64, align 8
  %4 = alloca ptr, align 8
  %5 = alloca i64, align 8
  store ptr %0, ptr %4, align 8, !tbaa !7
  store i64 %1, ptr %5, align 8, !tbaa !12
  %6 = load ptr, ptr %4, align 8, !tbaa !7
  %7 = load i8, ptr %6, align 1, !tbaa !16
  %8 = zext i8 %7 to i32
  %9 = icmp slt i32 %8, 128
  br i1 %9, label %10, label %11

10:                                               ; preds = %2
  store i64 1, ptr %3, align 8
  br label %80

11:                                               ; preds = %2
  %12 = load i64, ptr %5, align 8, !tbaa !12
  %13 = icmp sgt i64 %12, 1
  br i1 %13, label %14, label %45

14:                                               ; preds = %11
  %15 = load ptr, ptr %4, align 8, !tbaa !7
  %16 = getelementptr i8, ptr %15, i64 0
  %17 = load i8, ptr %16, align 1, !tbaa !16
  %18 = zext i8 %17 to i32
  %19 = icmp eq i32 %18, 142
  br i1 %19, label %32, label %20

20:                                               ; preds = %14
  %21 = load ptr, ptr %4, align 8, !tbaa !7
  %22 = getelementptr i8, ptr %21, i64 0
  %23 = load i8, ptr %22, align 1, !tbaa !16
  %24 = zext i8 %23 to i32
  %25 = icmp sge i32 %24, 161
  br i1 %25, label %26, label %45

26:                                               ; preds = %20
  %27 = load ptr, ptr %4, align 8, !tbaa !7
  %28 = getelementptr i8, ptr %27, i64 0
  %29 = load i8, ptr %28, align 1, !tbaa !16
  %30 = zext i8 %29 to i32
  %31 = icmp sle i32 %30, 254
  br i1 %31, label %32, label %45

32:                                               ; preds = %26, %14
  %33 = load ptr, ptr %4, align 8, !tbaa !7
  %34 = getelementptr i8, ptr %33, i64 1
  %35 = load i8, ptr %34, align 1, !tbaa !16
  %36 = zext i8 %35 to i32
  %37 = icmp sge i32 %36, 161
  br i1 %37, label %38, label %45

38:                                               ; preds = %32
  %39 = load ptr, ptr %4, align 8, !tbaa !7
  %40 = getelementptr i8, ptr %39, i64 1
  %41 = load i8, ptr %40, align 1, !tbaa !16
  %42 = zext i8 %41 to i32
  %43 = icmp sle i32 %42, 254
  br i1 %43, label %44, label %45

44:                                               ; preds = %38
  store i64 2, ptr %3, align 8
  br label %80

45:                                               ; preds = %38, %32, %26, %20, %11
  %46 = load i64, ptr %5, align 8, !tbaa !12
  %47 = icmp sgt i64 %46, 2
  br i1 %47, label %48, label %79

48:                                               ; preds = %45
  %49 = load ptr, ptr %4, align 8, !tbaa !7
  %50 = getelementptr i8, ptr %49, i64 0
  %51 = load i8, ptr %50, align 1, !tbaa !16
  %52 = zext i8 %51 to i32
  %53 = icmp eq i32 %52, 143
  br i1 %53, label %54, label %79

54:                                               ; preds = %48
  %55 = load ptr, ptr %4, align 8, !tbaa !7
  %56 = getelementptr i8, ptr %55, i64 1
  %57 = load i8, ptr %56, align 1, !tbaa !16
  %58 = zext i8 %57 to i32
  %59 = icmp sge i32 %58, 161
  br i1 %59, label %60, label %79

60:                                               ; preds = %54
  %61 = load ptr, ptr %4, align 8, !tbaa !7
  %62 = getelementptr i8, ptr %61, i64 2
  %63 = load i8, ptr %62, align 1, !tbaa !16
  %64 = zext i8 %63 to i32
  %65 = icmp sle i32 %64, 254
  br i1 %65, label %66, label %79

66:                                               ; preds = %60
  %67 = load ptr, ptr %4, align 8, !tbaa !7
  %68 = getelementptr i8, ptr %67, i64 2
  %69 = load i8, ptr %68, align 1, !tbaa !16
  %70 = zext i8 %69 to i32
  %71 = icmp sge i32 %70, 161
  br i1 %71, label %72, label %79

72:                                               ; preds = %66
  %73 = load ptr, ptr %4, align 8, !tbaa !7
  %74 = getelementptr i8, ptr %73, i64 2
  %75 = load i8, ptr %74, align 1, !tbaa !16
  %76 = zext i8 %75 to i32
  %77 = icmp sle i32 %76, 254
  br i1 %77, label %78, label %79

78:                                               ; preds = %72
  store i64 3, ptr %3, align 8
  br label %80

79:                                               ; preds = %72, %66, %60, %54, %48, %45
  store i64 0, ptr %3, align 8
  br label %80

80:                                               ; preds = %79, %78, %44, %10
  %81 = load i64, ptr %3, align 8
  ret i64 %81
}