; Function Attrs: mustprogress nofree norecurse nosync nounwind sspstrong willreturn memory(argmem: read) uwtable
define internal range(i64 0, 4) i64 @pm_encoding_euc_jp_char_width(ptr noundef readonly captures(none) %0, i64 noundef %1) #2 {
  %3 = load i8, ptr %0, align 1, !tbaa !7
  %4 = icmp sgt i8 %3, -1
  br i1 %4, label %25, label %5

5:                                                ; preds = %2
  %6 = icmp sgt i64 %1, 1
  br i1 %6, label %7, label %.thread

7:                                                ; preds = %5
  %8 = icmp ne i8 %3, -114
  %9 = add nsw i8 %3, 1
  %or.cond = icmp ult i8 %9, -94
  %or.cond21 = select i1 %8, i1 %or.cond, i1 false
  br i1 %or.cond21, label %14, label %10

10:                                               ; preds = %7
  %11 = getelementptr i8, ptr %0, i64 1
  %12 = load i8, ptr %11, align 1, !tbaa !7
  %13 = add i8 %12, 1
  %or.cond18 = icmp ult i8 %13, -94
  br i1 %or.cond18, label %14, label %25

14:                                               ; preds = %7, %10
  %15 = icmp ne i64 %1, 2
  %16 = icmp eq i8 %3, -113
  %or.cond20 = and i1 %15, %16
  br i1 %or.cond20, label %17, label %.thread

17:                                               ; preds = %14
  %18 = getelementptr i8, ptr %0, i64 1
  %19 = load i8, ptr %18, align 1, !tbaa !7
  %20 = icmp ugt i8 %19, -96
  br i1 %20, label %21, label %.thread

21:                                               ; preds = %17
  %22 = getelementptr i8, ptr %0, i64 2
  %23 = load i8, ptr %22, align 1, !tbaa !7
  %24 = add i8 %23, 95
  %or.cond19 = icmp ult i8 %24, 94
  br i1 %or.cond19, label %25, label %.thread

.thread:                                          ; preds = %5, %21, %17, %14
  br label %25

25:                                               ; preds = %21, %10, %2, %.thread
  %.0 = phi i64 [ 0, %.thread ], [ 1, %2 ], [ 2, %10 ], [ 3, %21 ]
  ret i64 %.0
}